ccopy_reg
_reconstructor
p1
(cpitz.bag
Project
p2
c__builtin__
list
p3
(lp4
g1
(cpitz.entity
Status
p5
c__builtin__
dict
p6
(dp7
S'pscore'
p8
I4
sS'frag'
p9
S'89ec45'
p10
sS'attached_files'
p11
(lp12
sS'uuid'
p13
g1
(cuuid
UUID
p14
c__builtin__
object
p15
NtRp16
(dp17
S'int'
p18
L183331026604543005529779409171227586096L
sbsS'title'
p19
S'finished'
p20
sS'modified_time'
p21
cdatetime
datetime
p22
(S'\x07\xd9\x0b\x16\x15\x1b*\t\xe3b'
tRp23
sS'created_time'
p24
g23
sS'type'
p25
S'status'
p26
sS'yaml_file_saved'
p27
g22
(S"\x07\xd9\x0b\x16\x15\x1b.\x03s'"
tRp28
sS'description'
p29
S''
stRp30
(dp31
g8
I4
sg9
g10
sg11
(lp32
sg13
g16
sg19
g20
sg21
g23
sg24
g23
sg25
g26
sg27
g28
sg29
S''
sbag1
(g5
g6
(dp33
g8
I3
sg9
S'4ec2a7'
p34
sg11
(lp35
sg13
g1
(g14
g15
NtRp36
(dp37
g18
L104690487320653648589509460256412606469L
sbsg19
S'started'
p38
sg21
g22
(S'\x07\xd9\x0b\x16\x15\x1b*\t\xda\xb6'
tRp39
sg24
g39
sg25
S'status'
p40
sg27
g22
(S'\x07\xd9\x0b\x16\x15\x1b.\x03\x8b\xcc'
tRp41
sg29
S''
stRp42
(dp43
g8
I3
sg9
g34
sg11
(lp44
sg13
g36
sg19
g38
sg21
g39
sg24
g39
sg25
g40
sg27
g41
sg29
S''
sbag1
(g5
g6
(dp45
g8
I2
sg9
S'6fb9c7'
p46
sg11
(lp47
sg13
g1
(g14
g15
NtRp48
(dp49
g18
L148508936027421968993418629651492863409L
sbsg19
S'unstarted'
p50
sg21
g22
(S'\x07\xd9\x0b\x16\x15\x1b*\t\xe0\xd5'
tRp51
sg24
g51
sg25
S'status'
p52
sg27
g22
(S"\x07\xd9\x0b\x16\x15\x1b.\x03\xa4'"
tRp53
sg29
S''
stRp54
(dp55
g8
I2
sg9
g46
sg11
(lp56
sg13
g48
sg19
g50
sg21
g51
sg24
g51
sg25
g52
sg27
g53
sg29
S''
sbag1
(g5
g6
(dp57
g8
I1
sg9
S'3fb738'
p58
sg11
(lp59
sg13
g1
(g14
g15
NtRp60
(dp61
g18
L84692692163850974261516972129773689695L
sbsg19
S'abandoned'
p62
sg21
g22
(S'\x07\xd9\x0b\x16\x15\x1b*\t\xe5\xd0'
tRp63
sg24
g63
sg25
S'status'
p64
sg27
g22
(S'\x07\xd9\x0b\x16\x15\x1b.\x03\xbb\x96'
tRp65
sg29
S''
stRp66
(dp67
g8
I1
sg9
g58
sg11
(lp68
sg13
g60
sg19
g62
sg21
g63
sg24
g63
sg25
g64
sg27
g65
sg29
S''
sbag1
(cpitz.entity
Task
p69
g6
(dp70
S'status'
p71
g54
sS'pscore'
p72
I0
sS'description'
p73
S'rt\nsearching all tagables which are has system tags is very slow, should be improved.\nsee StarSearchView and UnreadSearchView'
p74
sS'title'
p75
S'finding unread and stared tags is slow'
p76
sS'modified_time'
p77
g22
(S'\x07\xd9\x0b\x16\x15%!\x0f.\x00'
tRp78
sS'created_time'
p79
g22
(S'\x07\xd9\x0b\x16\x15%\x11\x01\x8b\xf3'
tRp80
sS'frag'
p81
S'a87407'
p82
sS'components'
p83
(lp84
sS'milestone'
p85
g1
(cpitz.entity
Milestone
p86
g6
(dp87
g72
I0
sg81
S'9f765a'
p88
sS'uuid'
p89
g1
(g14
g15
NtRp90
(dp91
S'int'
p92
L211961769246455148039943274776473539160L
sbsg75
S'unscheduled'
p93
sg77
g22
(S'\x07\xd9\x0b\x16\x15$#\x02\xe0\x1f'
tRp94
sg79
g94
sS'reached'
p95
I00
sS'type'
p96
S'milestone'
p97
sS'yaml_file_saved'
p98
g22
(S'\x07\xd9\x0b\x16\x15%"\x00M0'
tRp99
sg73
S''
stRp100
(dp101
g72
I0
sg81
g88
sg89
g90
sg75
g93
sg77
g94
sg79
g94
sg95
I00
sg96
g97
sg98
g99
sg73
S''
sbsS'owner'
p102
g1
(cpitz.entity
Person
p103
g6
(dp104
g8
I0
sg9
S'a10c56'
p105
sg11
(lp106
sg13
g1
(g14
g15
NtRp107
(dp108
g18
L214069775491885917014752369404705432394L
sbsg19
S'nielinjie'
p109
sg21
g22
(S'\x07\xd9\x0b\x16\x15\x1b.\x03p\xf0'
tRp110
sg24
g110
sg25
S'person'
p111
sg27
g22
(S'\x07\xd9\x0b\x16\x15\x1b.\x03\xd3\x00'
tRp112
sg29
S''
stRp113
(dp114
g8
I0
sg9
g105
sg11
(lp115
sg13
g107
sg19
g109
sg21
g110
sg24
g110
sg25
g111
sg27
g112
sg29
S''
sbsS'estimate'
p116
g1
(cpitz.entity
Estimate
p117
g6
(dp118
g72
I0
sg81
S'e58b11'
p119
sg89
g1
(g14
g15
NtRp120
(dp121
g92
L305115291370662711647575721856667623051L
sbsg75
S'not estimated'
p122
sg77
g22
(S'\x07\xd9\x0b\x16\x15$+\x04\xb3\x0f'
tRp123
sS'points'
p124
I0
sg79
g123
sg96
S'estimate'
p125
sg98
g22
(S'\x07\xd9\x0b\x16\x15%"\x005\xdf'
tRp126
sg73
S''
stRp127
(dp128
g72
I0
sg81
g119
sg89
g120
sg75
g122
sg77
g123
sg124
I0
sg79
g123
sg96
g125
sg98
g126
sg73
S''
sbsg96
S'task'
p129
sg98
g22
(S'\x07\xd9\x0b\x16\x15%!\x0f/['
tRp130
sg89
g1
(g14
g15
NtRp131
(dp132
g92
L223912751781750370639848599567976721139L
sbstRp133
(dp134
g71
g48
sg72
I0
sg73
g74
sg75
g76
sg77
g78
sg79
g80
sg81
g82
sg83
(lp135
sg85
g90
sg102
g107
sg116
g120
sg96
g129
sg98
g130
sg89
g131
sbag1
(g69
g6
(dp136
S'status'
p137
g54
sS'pscore'
p138
I0
sS'description'
p139
S'Just like pitz does'
p140
sS'title'
p141
S'Can i use file-system store?'
p142
sS'modified_time'
p143
g22
(S'\x07\xd9\x0b\x16\x17\x1d\x06\n\xd8\x97'
tRp144
sS'owner'
p145
g113
sS'frag'
p146
S'499e35'
p147
sS'components'
p148
(lp149
sS'milestone'
p150
g100
sS'created_time'
p151
g22
(S'\x07\xd9\x0b\x16\x17\x1d\x03\x04\xcd\xff'
tRp152
sS'estimate'
p153
g127
sS'type'
p154
S'task'
p155
sS'yaml_file_saved'
p156
g22
(S'\x07\xd9\x0b\x16\x17\x1d\x06\n\xd9\xe7'
tRp157
sS'uuid'
p158
g1
(g14
g15
NtRp159
(dp160
S'int'
p161
L97855107095059320546593180326706658264L
sbstRp162
(dp163
g137
g48
sg138
I0
sg139
g140
sg141
g142
sg143
g144
sg145
g107
sg146
g147
sg148
(lp164
sg150
g90
sg151
g152
sg153
g120
sg154
g155
sg156
g157
sg158
g159
sbag127
ag100
ag113
ag1
(g103
g6
(dp165
g72
I0
sg81
S'aafe06'
p166
sS'attached_files'
p167
(lp168
sg89
g1
(g14
g15
NtRp169
(dp170
g92
L227287743411073646927101671678710415694L
sbsg75
S'no owner'
p171
sg77
g22
(S'\x07\xd9\x0b\x16\x15%\r\x04d\xd9'
tRp172
sg79
g172
sg96
S'person'
p173
sg98
g22
(S'\x07\xd9\x0b\x16\x15%"\x00f\x1d'
tRp174
sg73
S''
stRp175
(dp176
g72
I0
sg81
g166
sg167
(lp177
sg89
g169
sg75
g171
sg77
g172
sg79
g172
sg96
g173
sg98
g174
sg73
S''
sbatRp178
(dp179
g13
g1
(g14
g15
NtRp180
(dp181
g18
L59004571395325631051404476739661477209L
sbsS'_html_filename'
p182
Nsg19
S'LiveTagged'
p183
sS'_shell_mode'
p184
I00
sS'order_method'
p185
cpitz
by_pscore_and_milestone
p186
sS'loaded_from'
p187
S'pickle'
p188
sS'pathname'
p189
S'/home/nielinjie/Projects/LiveTagged/pitzdir'
p190
sS'rerun_sort_after_append'
p191
I01
sS'entities_by_yaml_filename'
p192
(dp193
S'task-499e3545-d0ed-4b15-84f0-de9b8361bbd8.yaml'
p194
g162
sS'person-aafe06f0-34d7-4773-98f3-3b86711c814e.yaml'
p195
g175
sS'person-a10c56cd-fff3-4dd7-9847-8f1eaaeee34a.yaml'
p196
g113
sS'status-89ec4579-a341-4bf2-859d-c2819f77ae30.yaml'
p197
g30
sS'task-a8740700-fa2e-4f7d-84d9-75f969a96af3.yaml'
p198
g133
sS'status-3fb7381c-e54b-417b-9c8d-8cadb1a41b5f.yaml'
p199
g66
sS'status-6fb9c7db-53f9-4dff-b610-0f498a917db1.yaml'
p200
g54
sS'estimate-e58b114f-28b0-4d02-950a-dfee36361e8b.yaml'
p201
g127
sS'milestone-9f765a12-8f62-45c8-bc3e-7770e5069258.yaml'
p202
g100
sS'status-4ec2a789-8865-4316-a707-cdf47dbb2005.yaml'
p203
g42
ssS'entities_by_frag'
p204
(dp205
g147
g162
sg105
g113
sS'e58b11'
p206
g127
sS'4ec2a7'
p207
g42
sS'aafe06'
p208
g175
sS'9f765a'
p209
g100
sS'89ec45'
p210
g30
sg82
g133
sg58
g66
sS'6fb9c7'
p211
g54
ssS'entities_by_uuid'
p212
(dp213
g120
g127
sg90
g100
sg60
g66
sg131
g133
sg107
g113
sg159
g162
sg48
g54
sg169
g175
sg36
g42
sg16
g30
ssS'jinja_template'
p214
S'bag.html'
p215
sb.