ccopy_reg
_reconstructor
p1
(cpitz.bag
Project
p2
c__builtin__
list
p3
(lp4
g1
(cpitz.entity
Status
p5
c__builtin__
dict
p6
(dp7
S'pscore'
p8
I4
sS'frag'
p9
S'89ec45'
p10
sS'attached_files'
p11
(lp12
sS'uuid'
p13
g1
(cuuid
UUID
p14
c__builtin__
object
p15
NtRp16
(dp17
S'int'
p18
L183331026604543005529779409171227586096L
sbsS'title'
p19
S'finished'
p20
sS'modified_time'
p21
cdatetime
datetime
p22
(S'\x07\xd9\x0b\x16\x15\x1b*\t\xe3b'
tRp23
sS'created_time'
p24
g23
sS'type'
p25
S'status'
p26
sS'yaml_file_saved'
p27
g22
(S"\x07\xd9\x0b\x16\x15\x1b.\x03s'"
tRp28
sS'description'
p29
S''
stRp30
(dp31
g8
I4
sg9
g10
sg11
(lp32
sg13
g16
sg19
g20
sg21
g23
sg24
g23
sg25
g26
sg27
g28
sg29
S''
sbag1
(g5
g6
(dp33
g8
I3
sg9
S'4ec2a7'
p34
sg11
(lp35
sg13
g1
(g14
g15
NtRp36
(dp37
g18
L104690487320653648589509460256412606469L
sbsg19
S'started'
p38
sg21
g22
(S'\x07\xd9\x0b\x16\x15\x1b*\t\xda\xb6'
tRp39
sg24
g39
sg25
S'status'
p40
sg27
g22
(S'\x07\xd9\x0b\x16\x15\x1b.\x03\x8b\xcc'
tRp41
sg29
S''
stRp42
(dp43
g8
I3
sg9
g34
sg11
(lp44
sg13
g36
sg19
g38
sg21
g39
sg24
g39
sg25
g40
sg27
g41
sg29
S''
sbag1
(g5
g6
(dp45
g8
I2
sg9
S'6fb9c7'
p46
sg11
(lp47
sg13
g1
(g14
g15
NtRp48
(dp49
g18
L148508936027421968993418629651492863409L
sbsg19
S'unstarted'
p50
sg21
g22
(S'\x07\xd9\x0b\x16\x15\x1b*\t\xe0\xd5'
tRp51
sg24
g51
sg25
S'status'
p52
sg27
g22
(S"\x07\xd9\x0b\x16\x15\x1b.\x03\xa4'"
tRp53
sg29
S''
stRp54
(dp55
g8
I2
sg9
g46
sg11
(lp56
sg13
g48
sg19
g50
sg21
g51
sg24
g51
sg25
g52
sg27
g53
sg29
S''
sbag1
(g5
g6
(dp57
g8
I1
sg9
S'3fb738'
p58
sg11
(lp59
sg13
g1
(g14
g15
NtRp60
(dp61
g18
L84692692163850974261516972129773689695L
sbsg19
S'abandoned'
p62
sg21
g22
(S'\x07\xd9\x0b\x16\x15\x1b*\t\xe5\xd0'
tRp63
sg24
g63
sg25
S'status'
p64
sg27
g22
(S'\x07\xd9\x0b\x16\x15\x1b.\x03\xbb\x96'
tRp65
sg29
S''
stRp66
(dp67
g8
I1
sg9
g58
sg11
(lp68
sg13
g60
sg19
g62
sg21
g63
sg24
g63
sg25
g64
sg27
g65
sg29
S''
sbag1
(cpitz.entity
Task
p69
g6
(dp70
S'status'
p71
g54
sS'pscore'
p72
I0
sS'description'
p73
S'rt\nsearching all tagables which are has system tags is very slow, should be improved.\nsee StarSearchView and UnreadSearchView'
p74
sS'title'
p75
S'finding unread and stared tags is slow'
p76
sS'modified_time'
p77
g22
(S'\x07\xd9\x0b\x16\x15%!\x0f.\x00'
tRp78
sS'owner'
p79
g1
(cpitz.entity
Person
p80
g6
(dp81
g8
I0
sg9
S'a10c56'
p82
sg11
(lp83
sg13
g1
(g14
g15
NtRp84
(dp85
g18
L214069775491885917014752369404705432394L
sbsg19
S'nielinjie'
p86
sg21
g22
(S'\x07\xd9\x0b\x16\x15\x1b.\x03p\xf0'
tRp87
sg24
g87
sg25
S'person'
p88
sg27
g22
(S'\x07\xd9\x0b\x16\x15\x1b.\x03\xd3\x00'
tRp89
sg29
S''
stRp90
(dp91
g8
I0
sg9
g82
sg11
(lp92
sg13
g84
sg19
g86
sg21
g87
sg24
g87
sg25
g88
sg27
g89
sg29
S''
sbsS'frag'
p93
S'a87407'
p94
sS'components'
p95
(lp96
sS'milestone'
p97
g1
(cpitz.entity
Milestone
p98
g6
(dp99
g72
I0
sg93
S'9f765a'
p100
sS'uuid'
p101
g1
(g14
g15
NtRp102
(dp103
S'int'
p104
L211961769246455148039943274776473539160L
sbsg75
S'unscheduled'
p105
sg77
g22
(S'\x07\xd9\x0b\x16\x15$#\x02\xe0\x1f'
tRp106
sS'created_time'
p107
g106
sS'reached'
p108
I00
sS'type'
p109
S'milestone'
p110
sS'yaml_file_saved'
p111
g22
(S'\x07\xd9\x0b\x16\x15%"\x00M0'
tRp112
sg73
S''
stRp113
(dp114
g72
I0
sg93
g100
sg101
g102
sg75
g105
sg77
g106
sg107
g106
sg108
I00
sg109
g110
sg111
g112
sg73
S''
sbsg107
g22
(S'\x07\xd9\x0b\x16\x15%\x11\x01\x8b\xf3'
tRp115
sS'estimate'
p116
g1
(cpitz.entity
Estimate
p117
g6
(dp118
g72
I0
sg93
S'e58b11'
p119
sg101
g1
(g14
g15
NtRp120
(dp121
g104
L305115291370662711647575721856667623051L
sbsg75
S'not estimated'
p122
sg77
g22
(S'\x07\xd9\x0b\x16\x15$+\x04\xb3\x0f'
tRp123
sS'points'
p124
I0
sg107
g123
sg109
S'estimate'
p125
sg111
g22
(S'\x07\xd9\x0b\x16\x15%"\x005\xdf'
tRp126
sg73
S''
stRp127
(dp128
g72
I0
sg93
g119
sg101
g120
sg75
g122
sg77
g123
sg124
I0
sg107
g123
sg109
g125
sg111
g126
sg73
S''
sbsg109
S'task'
p129
sg111
g22
(S'\x07\xd9\x0b\x16\x15%!\x0f/['
tRp130
sg101
g1
(g14
g15
NtRp131
(dp132
g104
L223912751781750370639848599567976721139L
sbstRp133
(dp134
g71
g48
sg72
I0
sg73
g74
sg75
g76
sg77
g78
sg79
g84
sg93
g94
sg95
(lp135
sg97
g102
sg107
g115
sg116
g120
sg109
g129
sg111
g130
sg101
g131
sbag127
ag113
ag90
ag1
(g80
g6
(dp136
g72
I0
sg93
S'aafe06'
p137
sS'attached_files'
p138
(lp139
sg101
g1
(g14
g15
NtRp140
(dp141
g104
L227287743411073646927101671678710415694L
sbsg75
S'no owner'
p142
sg77
g22
(S'\x07\xd9\x0b\x16\x15%\r\x04d\xd9'
tRp143
sg107
g143
sg109
S'person'
p144
sg111
g22
(S'\x07\xd9\x0b\x16\x15%"\x00f\x1d'
tRp145
sg73
S''
stRp146
(dp147
g72
I0
sg93
g137
sg138
(lp148
sg101
g140
sg75
g142
sg77
g143
sg107
g143
sg109
g144
sg111
g145
sg73
S''
sbatRp149
(dp150
g13
g1
(g14
g15
NtRp151
(dp152
g18
L59004571395325631051404476739661477209L
sbsS'_html_filename'
p153
Nsg19
S'LiveTagged'
p154
sS'_shell_mode'
p155
I00
sS'order_method'
p156
cpitz
by_pscore_and_milestone
p157
sS'loaded_from'
p158
S'pickle'
p159
sS'pathname'
p160
S'/home/nielinjie/Projects/LiveTagged/pitzdir'
p161
sS'rerun_sort_after_append'
p162
I01
sS'entities_by_yaml_filename'
p163
(dp164
S'person-aafe06f0-34d7-4773-98f3-3b86711c814e.yaml'
p165
g146
sS'person-a10c56cd-fff3-4dd7-9847-8f1eaaeee34a.yaml'
p166
g90
sS'status-89ec4579-a341-4bf2-859d-c2819f77ae30.yaml'
p167
g30
sS'task-a8740700-fa2e-4f7d-84d9-75f969a96af3.yaml'
p168
g133
sS'status-3fb7381c-e54b-417b-9c8d-8cadb1a41b5f.yaml'
p169
g66
sS'status-6fb9c7db-53f9-4dff-b610-0f498a917db1.yaml'
p170
g54
sS'estimate-e58b114f-28b0-4d02-950a-dfee36361e8b.yaml'
p171
g127
sS'status-4ec2a789-8865-4316-a707-cdf47dbb2005.yaml'
p172
g42
sS'milestone-9f765a12-8f62-45c8-bc3e-7770e5069258.yaml'
p173
g113
ssS'entities_by_frag'
p174
(dp175
g82
g90
sg119
g127
sS'4ec2a7'
p176
g42
sg137
g146
sg100
g113
sS'89ec45'
p177
g30
sg94
g133
sg58
g66
sS'6fb9c7'
p178
g54
ssS'entities_by_uuid'
p179
(dp180
g131
g133
sg102
g113
sg60
g66
sg120
g127
sg84
g90
sg48
g54
sg140
g146
sg36
g42
sg16
g30
ssS'jinja_template'
p181
S'bag.html'
p182
sb.